target datalayout = "e-m:e-p270:32:32-p271:32:32-p272:64:64-i64:64-i128:128-f80:128-n8:16:32:64-S128"
target triple = "x86_64-pc-linux-gnu"

%struct.ParseContext_ = type { %struct.TokenData, i32, %union.SourceSpan, %union.SourceSpan, ptr, %struct.Lexer }
%struct.TokenData = type { ptr, i64, %union.anon.86 }
%union.anon.86 = type { %struct.anon.89 }
%struct.anon.89 = type { %struct.Int128_, i8 }
%struct.Int128_ = type { i64, i64 }
%union.SourceSpan = type { i64 }
%struct.Lexer = type { ptr, ptr, ptr, ptr, i32, i32, ptr, ptr, ptr, %struct.TokenData, %union.SourceSpan, i32, i32 }
%struct.Expr_ = type { ptr, %union.SourceSpan, i16, %union.anon.30 }
%union.anon.30 = type { %struct.ExprAnySwitch }
%struct.ExprAnySwitch = type { i8, %union.anon.32 }
%union.anon.32 = type { %struct.anon.33 }
%struct.anon.33 = type { ptr, %union.SourceSpan, ptr }
%struct.ExprIdentifierRaw = type { ptr, i8, ptr }

; Function Attrs: nounwind uwtable
define internal ptr @parse_hash_ident(ptr noundef %0, ptr noundef %1) #0 {
  %3 = alloca ptr, align 8
  %4 = alloca ptr, align 8
  %5 = alloca i32, align 4
  %6 = alloca ptr, align 8
  %7 = alloca ptr, align 8
  %8 = alloca ptr, align 8
  store ptr %0, ptr %6, align 8
  store ptr %1, ptr %7, align 8
  %9 = load ptr, ptr %6, align 8
  %10 = getelementptr inbounds %struct.ParseContext_, ptr %9, i32 0, i32 2
  %11 = getelementptr inbounds %union.SourceSpan, ptr %10, i32 0, i32 0
  %12 = load i64, ptr %11, align 8
  %13 = call ptr @expr_new(i32 noundef 33, i64 %12)
  store ptr %13, ptr %8, align 8
  %14 = load ptr, ptr %6, align 8
  store ptr %14, ptr %3, align 8
  %15 = load ptr, ptr %3, align 8
  %16 = getelementptr inbounds %struct.TokenData, ptr %15, i32 0, i32 2
  %17 = load ptr, ptr %16, align 8
  %18 = load ptr, ptr %8, align 8
  %19 = getelementptr inbounds %struct.Expr_, ptr %18, i32 0, i32 3
  %20 = getelementptr inbounds %struct.ExprIdentifierRaw, ptr %19, i32 0, i32 0
  store ptr %17, ptr %20, align 8
  %21 = load ptr, ptr %6, align 8
  store ptr %21, ptr %4, align 8
  store i32 70, ptr %5, align 4
  %22 = load ptr, ptr %4, align 8
  call void @advance(ptr noundef %22) #5
  %23 = load ptr, ptr %8, align 8
  ret ptr %23
}