; Function Attrs: nounwind uwtable
define internal ptr @parse_hash_ident(ptr noundef %0, ptr nocapture readnone %1) #1 {
  %3 = getelementptr inbounds i8, ptr %0, i64 48
  %4 = load i64, ptr %3, align 8
  %5 = tail call ptr @expr_new(i32 noundef 33, i64 %4) #8
  %6 = getelementptr inbounds i8, ptr %0, i64 16
  %7 = load ptr, ptr %6, align 8
  %8 = getelementptr inbounds i8, ptr %5, i64 24
  store ptr %7, ptr %8, align 8
  tail call void @advance(ptr noundef %0) #8
  ret ptr %5
}